; Function Attrs: mustprogress nofree norecurse nosync nounwind willreturn memory(argmem: read) uwtable
define hidden noundef zeroext i1 @_ZNK16MachCallJavaNode3cmpERK4Node(ptr nocapture noundef nonnull readonly align 8 dereferenceable(148) %0, ptr nocapture noundef nonnull readonly align 8 dereferenceable(52) %1) unnamed_addr #5 align 2 {
  %3 = getelementptr inbounds i8, ptr %0, i64 112
  %4 = load ptr, ptr %3, align 8
  %5 = getelementptr inbounds i8, ptr %1, i64 112
  %6 = load ptr, ptr %5, align 8
  %7 = icmp eq ptr %4, %6
  br i1 %7, label %8, label %22

8:                                                ; preds = %2
  %9 = getelementptr inbounds i8, ptr %0, i64 136
  %10 = load ptr, ptr %9, align 8
  %11 = getelementptr inbounds i8, ptr %1, i64 136
  %12 = load ptr, ptr %11, align 8
  %13 = icmp eq ptr %10, %12
  br i1 %13, label %14, label %22

14:                                               ; preds = %8
  %15 = getelementptr inbounds i8, ptr %0, i64 144
  %16 = load i8, ptr %15, align 8
  %17 = getelementptr inbounds i8, ptr %1, i64 144
  %18 = load i8, ptr %17, align 8
  %19 = xor i8 %18, %16
  %20 = and i8 %19, 1
  %21 = icmp eq i8 %20, 0
  br label %22

22:                                               ; preds = %14, %8, %2
  %23 = phi i1 [ false, %8 ], [ false, %2 ], [ %21, %14 ]
  ret i1 %23
}